target datalayout = "e-m:e-p270:32:32-p271:32:32-p272:64:64-i64:64-i128:128-f80:128-n8:16:32:64-S128"
target triple = "x86_64-pc-linux-gnu"

%struct.IDAMemRec = type { double, ptr, ptr, i32, double, double, ptr, i32, ptr, ptr, i32, ptr, ptr, i32, i32, double, double, ptr, i32, i32, i32, ptr, ptr, i32, ptr, ptr, ptr, i32, double, i32, i32, double, ptr, ptr, i32, ptr, ptr, i32, i32, i32, double, ptr, ptr, [6 x ptr], [6 x double], [6 x double], [6 x double], [6 x double], [6 x double], ptr, ptr, ptr, ptr, ptr, ptr, ptr, ptr, ptr, ptr, ptr, ptr, ptr, ptr, ptr, [6 x ptr], ptr, ptr, ptr, ptr, [6 x ptr], ptr, ptr, ptr, ptr, ptr, ptr, ptr, ptr, ptr, ptr, ptr, ptr, ptr, ptr, [6 x ptr], ptr, ptr, ptr, ptr, ptr, double, ptr, ptr, i32, i32, i32, i32, i32, i32, i32, double, double, double, i32, double, i32, i32, i32, i32, double, double, double, double, double, double, double, double, double, double, double, double, double, double, i32, i32, i32, i32, i32, i64, double, i32, i64, i64, i64, i64, i64, i64, i64, i64, i64, i64, i64, i64, i64, i64, i64, i64, i64, i64, i64, i64, i64, i64, i64, i64, ptr, ptr, ptr, i32, i32, i32, i32, i32, i32, i32, i32, i32, i32, i32, i32, i32, ptr, ptr, ptr, ptr, ptr, ptr, i32, i32, i32, i32, i32, i32, double, double, double, ptr, i32, ptr, ptr, double, double, double, ptr, ptr, ptr, double, double, i32, i32, i64, ptr, i32, i32, ptr, i32 }

; Function Attrs: nounwind uwtable
define internal i32 @IDASensEwtSetSV(ptr noundef %0, ptr noundef %1, ptr noundef %2) #0 {
  %4 = alloca i32, align 4
  %5 = alloca ptr, align 8
  %6 = alloca ptr, align 8
  %7 = alloca ptr, align 8
  %8 = alloca i32, align 4
  %9 = alloca i32, align 4
  store ptr %0, ptr %5, align 8, !tbaa !3
  store ptr %1, ptr %6, align 8, !tbaa !94
  store ptr %2, ptr %7, align 8, !tbaa !94
  call void @llvm.lifetime.start.p0(i64 4, ptr %8) #8
  store i32 0, ptr %8, align 4, !tbaa !88
  br label %10

10:                                               ; preds = %56, %3
  %11 = load i32, ptr %8, align 4, !tbaa !88
  %12 = load ptr, ptr %5, align 8, !tbaa !3
  %13 = getelementptr inbounds nuw %struct.IDAMemRec, ptr %12, i32 0, i32 19
  %14 = load i32, ptr %13, align 4, !tbaa !173
  %15 = icmp slt i32 %11, %14
  br i1 %15, label %16, label %59

16:                                               ; preds = %10
  %17 = load ptr, ptr %6, align 8, !tbaa !94
  %18 = load i32, ptr %8, align 4, !tbaa !88
  %19 = sext i32 %18 to i64
  %20 = getelementptr inbounds ptr, ptr %17, i64 %19
  %21 = load ptr, ptr %20, align 8, !tbaa !93
  %22 = load ptr, ptr %5, align 8, !tbaa !3
  %23 = getelementptr inbounds nuw %struct.IDAMemRec, ptr %22, i32 0, i32 58
  %24 = load ptr, ptr %23, align 8, !tbaa !150
  call void @N_VAbs(ptr noundef %21, ptr noundef %24)
  %25 = load ptr, ptr %5, align 8, !tbaa !3
  %26 = getelementptr inbounds nuw %struct.IDAMemRec, ptr %25, i32 0, i32 31
  %27 = load double, ptr %26, align 8, !tbaa !197
  %28 = load ptr, ptr %5, align 8, !tbaa !3
  %29 = getelementptr inbounds nuw %struct.IDAMemRec, ptr %28, i32 0, i32 58
  %30 = load ptr, ptr %29, align 8, !tbaa !150
  %31 = load ptr, ptr %5, align 8, !tbaa !3
  %32 = getelementptr inbounds nuw %struct.IDAMemRec, ptr %31, i32 0, i32 33
  %33 = load ptr, ptr %32, align 8, !tbaa !201
  %34 = load i32, ptr %8, align 4, !tbaa !88
  %35 = sext i32 %34 to i64
  %36 = getelementptr inbounds ptr, ptr %33, i64 %35
  %37 = load ptr, ptr %36, align 8, !tbaa !93
  %38 = load ptr, ptr %5, align 8, !tbaa !3
  %39 = getelementptr inbounds nuw %struct.IDAMemRec, ptr %38, i32 0, i32 58
  %40 = load ptr, ptr %39, align 8, !tbaa !150
  call void @N_VLinearSum(double noundef %27, ptr noundef %30, double noundef 1.000000e+00, ptr noundef %37, ptr noundef %40)
  %41 = load ptr, ptr %5, align 8, !tbaa !3
  %42 = getelementptr inbounds nuw %struct.IDAMemRec, ptr %41, i32 0, i32 58
  %43 = load ptr, ptr %42, align 8, !tbaa !150
  %44 = call double @N_VMin(ptr noundef %43)
  %45 = fcmp ole double %44, 0.000000e+00
  br i1 %45, label %46, label %47

46:                                               ; preds = %16
  store i32 -1, ptr %4, align 4
  store i32 1, ptr %9, align 4
  br label %60

47:                                               ; preds = %16
  %48 = load ptr, ptr %5, align 8, !tbaa !3
  %49 = getelementptr inbounds nuw %struct.IDAMemRec, ptr %48, i32 0, i32 58
  %50 = load ptr, ptr %49, align 8, !tbaa !150
  %51 = load ptr, ptr %7, align 8, !tbaa !94
  %52 = load i32, ptr %8, align 4, !tbaa !88
  %53 = sext i32 %52 to i64
  %54 = getelementptr inbounds ptr, ptr %51, i64 %53
  %55 = load ptr, ptr %54, align 8, !tbaa !93
  call void @N_VInv(ptr noundef %50, ptr noundef %55)
  br label %56

56:                                               ; preds = %47
  %57 = load i32, ptr %8, align 4, !tbaa !88
  %58 = add nsw i32 %57, 1
  store i32 %58, ptr %8, align 4, !tbaa !88
  br label %10, !llvm.loop !286

59:                                               ; preds = %10
  store i32 0, ptr %4, align 4
  store i32 1, ptr %9, align 4
  br label %60

60:                                               ; preds = %59, %46
  call void @llvm.lifetime.end.p0(i64 4, ptr %8) #8
  %61 = load i32, ptr %4, align 4
  ret i32 %61
}

; Function Attrs: nounwind uwtable
define internal i32 @IDASensEwtSetSS(ptr noundef %0, ptr noundef %1, ptr noundef %2) #0 {
  %4 = alloca i32, align 4
  %5 = alloca ptr, align 8
  %6 = alloca ptr, align 8
  %7 = alloca ptr, align 8
  %8 = alloca i32, align 4
  %9 = alloca i32, align 4
  store ptr %0, ptr %5, align 8, !tbaa !3
  store ptr %1, ptr %6, align 8, !tbaa !94
  store ptr %2, ptr %7, align 8, !tbaa !94
  call void @llvm.lifetime.start.p0(i64 4, ptr %8) #8
  store i32 0, ptr %8, align 4, !tbaa !88
  br label %10

10:                                               ; preds = %62, %3
  %11 = load i32, ptr %8, align 4, !tbaa !88
  %12 = load ptr, ptr %5, align 8, !tbaa !3
  %13 = getelementptr inbounds nuw %struct.IDAMemRec, ptr %12, i32 0, i32 19
  %14 = load i32, ptr %13, align 4, !tbaa !173
  %15 = icmp slt i32 %11, %14
  br i1 %15, label %16, label %65

16:                                               ; preds = %10
  %17 = load ptr, ptr %6, align 8, !tbaa !94
  %18 = load i32, ptr %8, align 4, !tbaa !88
  %19 = sext i32 %18 to i64
  %20 = getelementptr inbounds ptr, ptr %17, i64 %19
  %21 = load ptr, ptr %20, align 8, !tbaa !93
  %22 = load ptr, ptr %5, align 8, !tbaa !3
  %23 = getelementptr inbounds nuw %struct.IDAMemRec, ptr %22, i32 0, i32 58
  %24 = load ptr, ptr %23, align 8, !tbaa !150
  call void @N_VAbs(ptr noundef %21, ptr noundef %24)
  %25 = load ptr, ptr %5, align 8, !tbaa !3
  %26 = getelementptr inbounds nuw %struct.IDAMemRec, ptr %25, i32 0, i32 31
  %27 = load double, ptr %26, align 8, !tbaa !197
  %28 = load ptr, ptr %5, align 8, !tbaa !3
  %29 = getelementptr inbounds nuw %struct.IDAMemRec, ptr %28, i32 0, i32 58
  %30 = load ptr, ptr %29, align 8, !tbaa !150
  %31 = load ptr, ptr %5, align 8, !tbaa !3
  %32 = getelementptr inbounds nuw %struct.IDAMemRec, ptr %31, i32 0, i32 58
  %33 = load ptr, ptr %32, align 8, !tbaa !150
  call void @N_VScale(double noundef %27, ptr noundef %30, ptr noundef %33)
  %34 = load ptr, ptr %5, align 8, !tbaa !3
  %35 = getelementptr inbounds nuw %struct.IDAMemRec, ptr %34, i32 0, i32 58
  %36 = load ptr, ptr %35, align 8, !tbaa !150
  %37 = load ptr, ptr %5, align 8, !tbaa !3
  %38 = getelementptr inbounds nuw %struct.IDAMemRec, ptr %37, i32 0, i32 32
  %39 = load ptr, ptr %38, align 8, !tbaa !198
  %40 = load i32, ptr %8, align 4, !tbaa !88
  %41 = sext i32 %40 to i64
  %42 = getelementptr inbounds double, ptr %39, i64 %41
  %43 = load double, ptr %42, align 8, !tbaa !92
  %44 = load ptr, ptr %5, align 8, !tbaa !3
  %45 = getelementptr inbounds nuw %struct.IDAMemRec, ptr %44, i32 0, i32 58
  %46 = load ptr, ptr %45, align 8, !tbaa !150
  call void @N_VAddConst(ptr noundef %36, double noundef %43, ptr noundef %46)
  %47 = load ptr, ptr %5, align 8, !tbaa !3
  %48 = getelementptr inbounds nuw %struct.IDAMemRec, ptr %47, i32 0, i32 58
  %49 = load ptr, ptr %48, align 8, !tbaa !150
  %50 = call double @N_VMin(ptr noundef %49)
  %51 = fcmp ole double %50, 0.000000e+00
  br i1 %51, label %52, label %53

52:                                               ; preds = %16
  store i32 -1, ptr %4, align 4
  store i32 1, ptr %9, align 4
  br label %66

53:                                               ; preds = %16
  %54 = load ptr, ptr %5, align 8, !tbaa !3
  %55 = getelementptr inbounds nuw %struct.IDAMemRec, ptr %54, i32 0, i32 58
  %56 = load ptr, ptr %55, align 8, !tbaa !150
  %57 = load ptr, ptr %7, align 8, !tbaa !94
  %58 = load i32, ptr %8, align 4, !tbaa !88
  %59 = sext i32 %58 to i64
  %60 = getelementptr inbounds ptr, ptr %57, i64 %59
  %61 = load ptr, ptr %60, align 8, !tbaa !93
  call void @N_VInv(ptr noundef %56, ptr noundef %61)
  br label %62

62:                                               ; preds = %53
  %63 = load i32, ptr %8, align 4, !tbaa !88
  %64 = add nsw i32 %63, 1
  store i32 %64, ptr %8, align 4, !tbaa !88
  br label %10, !llvm.loop !285

65:                                               ; preds = %10
  store i32 0, ptr %4, align 4
  store i32 1, ptr %9, align 4
  br label %66

66:                                               ; preds = %65, %52
  call void @llvm.lifetime.end.p0(i64 4, ptr %8) #8
  %67 = load i32, ptr %4, align 4
  ret i32 %67
}

; Function Attrs: nounwind uwtable
define internal i32 @IDASensEwtSetEE(ptr noundef %0, ptr noundef %1, ptr noundef %2) #0 {
  %4 = alloca i32, align 4
  %5 = alloca ptr, align 8
  %6 = alloca ptr, align 8
  %7 = alloca ptr, align 8
  %8 = alloca i32, align 4
  %9 = alloca ptr, align 8
  %10 = alloca i32, align 4
  %11 = alloca i32, align 4
  store ptr %0, ptr %5, align 8, !tbaa !3
  store ptr %1, ptr %6, align 8, !tbaa !94
  store ptr %2, ptr %7, align 8, !tbaa !94
  call void @llvm.lifetime.start.p0(i64 4, ptr %8) #8
  call void @llvm.lifetime.start.p0(i64 8, ptr %9) #8
  call void @llvm.lifetime.start.p0(i64 4, ptr %10) #8
  %12 = load ptr, ptr %5, align 8, !tbaa !3
  %13 = getelementptr inbounds nuw %struct.IDAMemRec, ptr %12, i32 0, i32 58
  %14 = load ptr, ptr %13, align 8, !tbaa !150
  store ptr %14, ptr %9, align 8, !tbaa !93
  store i32 0, ptr %8, align 4, !tbaa !88
  br label %15

15:                                               ; preds = %69, %3
  %16 = load i32, ptr %8, align 4, !tbaa !88
  %17 = load ptr, ptr %5, align 8, !tbaa !3
  %18 = getelementptr inbounds nuw %struct.IDAMemRec, ptr %17, i32 0, i32 19
  %19 = load i32, ptr %18, align 4, !tbaa !173
  %20 = icmp slt i32 %16, %19
  br i1 %20, label %21, label %72

21:                                               ; preds = %15
  %22 = load ptr, ptr %5, align 8, !tbaa !3
  %23 = getelementptr inbounds nuw %struct.IDAMemRec, ptr %22, i32 0, i32 25
  %24 = load ptr, ptr %23, align 8, !tbaa !60
  %25 = load i32, ptr %8, align 4, !tbaa !88
  %26 = sext i32 %25 to i64
  %27 = getelementptr inbounds double, ptr %24, i64 %26
  %28 = load double, ptr %27, align 8, !tbaa !92
  %29 = load ptr, ptr %6, align 8, !tbaa !94
  %30 = load i32, ptr %8, align 4, !tbaa !88
  %31 = sext i32 %30 to i64
  %32 = getelementptr inbounds ptr, ptr %29, i64 %31
  %33 = load ptr, ptr %32, align 8, !tbaa !93
  %34 = load ptr, ptr %9, align 8, !tbaa !93
  call void @N_VScale(double noundef %28, ptr noundef %33, ptr noundef %34)
  %35 = load ptr, ptr %5, align 8, !tbaa !3
  %36 = getelementptr inbounds nuw %struct.IDAMemRec, ptr %35, i32 0, i32 8
  %37 = load ptr, ptr %36, align 8, !tbaa !23
  %38 = load ptr, ptr %9, align 8, !tbaa !93
  %39 = load ptr, ptr %7, align 8, !tbaa !94
  %40 = load i32, ptr %8, align 4, !tbaa !88
  %41 = sext i32 %40 to i64
  %42 = getelementptr inbounds ptr, ptr %39, i64 %41
  %43 = load ptr, ptr %42, align 8, !tbaa !93
  %44 = load ptr, ptr %5, align 8, !tbaa !3
  %45 = getelementptr inbounds nuw %struct.IDAMemRec, ptr %44, i32 0, i32 9
  %46 = load ptr, ptr %45, align 8, !tbaa !24
  %47 = call i32 %37(ptr noundef %38, ptr noundef %43, ptr noundef %46)
  store i32 %47, ptr %10, align 4, !tbaa !88
  %48 = load i32, ptr %10, align 4, !tbaa !88
  %49 = icmp ne i32 %48, 0
  br i1 %49, label %50, label %51

50:                                               ; preds = %21
  store i32 -1, ptr %4, align 4
  store i32 1, ptr %11, align 4
  br label %73

51:                                               ; preds = %21
  %52 = load ptr, ptr %5, align 8, !tbaa !3
  %53 = getelementptr inbounds nuw %struct.IDAMemRec, ptr %52, i32 0, i32 25
  %54 = load ptr, ptr %53, align 8, !tbaa !60
  %55 = load i32, ptr %8, align 4, !tbaa !88
  %56 = sext i32 %55 to i64
  %57 = getelementptr inbounds double, ptr %54, i64 %56
  %58 = load double, ptr %57, align 8, !tbaa !92
  %59 = load ptr, ptr %7, align 8, !tbaa !94
  %60 = load i32, ptr %8, align 4, !tbaa !88
  %61 = sext i32 %60 to i64
  %62 = getelementptr inbounds ptr, ptr %59, i64 %61
  %63 = load ptr, ptr %62, align 8, !tbaa !93
  %64 = load ptr, ptr %7, align 8, !tbaa !94
  %65 = load i32, ptr %8, align 4, !tbaa !88
  %66 = sext i32 %65 to i64
  %67 = getelementptr inbounds ptr, ptr %64, i64 %66
  %68 = load ptr, ptr %67, align 8, !tbaa !93
  call void @N_VScale(double noundef %58, ptr noundef %63, ptr noundef %68)
  br label %69

69:                                               ; preds = %51
  %70 = load i32, ptr %8, align 4, !tbaa !88
  %71 = add nsw i32 %70, 1
  store i32 %71, ptr %8, align 4, !tbaa !88
  br label %15, !llvm.loop !284

72:                                               ; preds = %15
  store i32 0, ptr %4, align 4
  store i32 1, ptr %11, align 4
  br label %73

73:                                               ; preds = %72, %50
  call void @llvm.lifetime.end.p0(i64 4, ptr %10) #8
  call void @llvm.lifetime.end.p0(i64 8, ptr %9) #8
  call void @llvm.lifetime.end.p0(i64 4, ptr %8) #8
  %74 = load i32, ptr %4, align 4
  ret i32 %74
}

; Function Attrs: nounwind uwtable
define i32 @IDASensEwtSet(ptr noundef %0, ptr noundef %1, ptr noundef %2) #0 {
  %4 = alloca ptr, align 8
  %5 = alloca ptr, align 8
  %6 = alloca ptr, align 8
  %7 = alloca i32, align 4
  store ptr %0, ptr %4, align 8, !tbaa !3
  store ptr %1, ptr %5, align 8, !tbaa !94
  store ptr %2, ptr %6, align 8, !tbaa !94
  call void @llvm.lifetime.start.p0(i64 4, ptr %7) #8
  store i32 0, ptr %7, align 4, !tbaa !88
  %8 = load ptr, ptr %4, align 8, !tbaa !3
  %9 = getelementptr inbounds nuw %struct.IDAMemRec, ptr %8, i32 0, i32 30
  %10 = load i32, ptr %9, align 4, !tbaa !64
  switch i32 %10, label %26 [
    i32 4, label %11
    i32 1, label %16
    i32 2, label %21
  ]

11:                                               ; preds = %3
  %12 = load ptr, ptr %4, align 8, !tbaa !3
  %13 = load ptr, ptr %5, align 8, !tbaa !94
  %14 = load ptr, ptr %6, align 8, !tbaa !94
  %15 = call i32 @IDASensEwtSetEE(ptr noundef %12, ptr noundef %13, ptr noundef %14)
  store i32 %15, ptr %7, align 4, !tbaa !88
  br label %26

16:                                               ; preds = %3
  %17 = load ptr, ptr %4, align 8, !tbaa !3
  %18 = load ptr, ptr %5, align 8, !tbaa !94
  %19 = load ptr, ptr %6, align 8, !tbaa !94
  %20 = call i32 @IDASensEwtSetSS(ptr noundef %17, ptr noundef %18, ptr noundef %19)
  store i32 %20, ptr %7, align 4, !tbaa !88
  br label %26

21:                                               ; preds = %3
  %22 = load ptr, ptr %4, align 8, !tbaa !3
  %23 = load ptr, ptr %5, align 8, !tbaa !94
  %24 = load ptr, ptr %6, align 8, !tbaa !94
  %25 = call i32 @IDASensEwtSetSV(ptr noundef %22, ptr noundef %23, ptr noundef %24)
  store i32 %25, ptr %7, align 4, !tbaa !88
  br label %26

26:                                               ; preds = %3, %21, %16, %11
  %27 = load i32, ptr %7, align 4, !tbaa !88
  call void @llvm.lifetime.end.p0(i64 4, ptr %7) #8
  ret i32 %27
}