; Function Attrs: nounwind uwtable
define range(i32 -1, 1) i32 @IDASensEwtSet(ptr noundef readonly captures(none) %0, ptr noundef readonly captures(none) %1, ptr noundef readonly captures(none) %2) local_unnamed_addr #0 {
  %4 = getelementptr inbounds nuw i8, ptr %0, i64 220
  %5 = load i32, ptr %4, align 4, !tbaa !45
  switch i32 %5, label %IDASensEwtSetEE.exit [
    i32 4, label %6
    i32 1, label %34
    i32 2, label %61
  ]

6:                                                ; preds = %3
  %7 = getelementptr inbounds nuw i8, ptr %0, i64 672
  %8 = load ptr, ptr %7, align 8, !tbaa !93
  %9 = getelementptr inbounds nuw i8, ptr %0, i64 184
  %10 = getelementptr inbounds nuw i8, ptr %0, i64 140
  %11 = load i32, ptr %10, align 4, !tbaa !139
  %12 = icmp sgt i32 %11, 0
  br i1 %12, label %.lr.ph.i, label %IDASensEwtSetEE.exit

.lr.ph.i:                                         ; preds = %6
  %13 = getelementptr inbounds nuw i8, ptr %0, i64 64
  %14 = getelementptr inbounds nuw i8, ptr %0, i64 72
  br label %15

15:                                               ; preds = %26, %.lr.ph.i
  %indvars.iv.i = phi i64 [ 0, %.lr.ph.i ], [ %indvars.iv.next.i, %26 ]
  %16 = load ptr, ptr %9, align 8, !tbaa !59
  %17 = getelementptr inbounds nuw double, ptr %16, i64 %indvars.iv.i
  %18 = load double, ptr %17, align 8, !tbaa !60
  %19 = getelementptr inbounds nuw ptr, ptr %1, i64 %indvars.iv.i
  %20 = load ptr, ptr %19, align 8, !tbaa !57
  tail call void @N_VScale(double noundef %18, ptr noundef %20, ptr noundef %8) #13
  %21 = load ptr, ptr %13, align 8, !tbaa !118
  %22 = getelementptr inbounds nuw ptr, ptr %2, i64 %indvars.iv.i
  %23 = load ptr, ptr %22, align 8, !tbaa !57
  %24 = load ptr, ptr %14, align 8, !tbaa !119
  %25 = tail call i32 %21(ptr noundef %8, ptr noundef %23, ptr noundef %24) #13
  %.not.i = icmp eq i32 %25, 0
  br i1 %.not.i, label %26, label %IDASensEwtSetEE.exit

26:                                               ; preds = %15
  %27 = load ptr, ptr %9, align 8, !tbaa !59
  %28 = getelementptr inbounds nuw double, ptr %27, i64 %indvars.iv.i
  %29 = load double, ptr %28, align 8, !tbaa !60
  %30 = load ptr, ptr %22, align 8, !tbaa !57
  tail call void @N_VScale(double noundef %29, ptr noundef %30, ptr noundef %30) #13
  %indvars.iv.next.i = add nuw nsw i64 %indvars.iv.i, 1
  %31 = load i32, ptr %10, align 4, !tbaa !139
  %32 = sext i32 %31 to i64
  %33 = icmp slt i64 %indvars.iv.next.i, %32
  br i1 %33, label %15, label %IDASensEwtSetEE.exit, !llvm.loop !303

34:                                               ; preds = %3
  %35 = getelementptr inbounds nuw i8, ptr %0, i64 140
  %36 = load i32, ptr %35, align 4, !tbaa !139
  %37 = icmp sgt i32 %36, 0
  br i1 %37, label %.lr.ph.i10, label %IDASensEwtSetEE.exit

.lr.ph.i10:                                       ; preds = %34
  %38 = getelementptr inbounds nuw i8, ptr %0, i64 672
  %39 = getelementptr inbounds nuw i8, ptr %0, i64 224
  %40 = getelementptr inbounds nuw i8, ptr %0, i64 232
  br label %41

41:                                               ; preds = %54, %.lr.ph.i10
  %indvars.iv.i11 = phi i64 [ 0, %.lr.ph.i10 ], [ %indvars.iv.next.i12, %54 ]
  %42 = getelementptr inbounds nuw ptr, ptr %1, i64 %indvars.iv.i11
  %43 = load ptr, ptr %42, align 8, !tbaa !57
  %44 = load ptr, ptr %38, align 8, !tbaa !93
  tail call void @N_VAbs(ptr noundef %43, ptr noundef %44) #13
  %45 = load double, ptr %39, align 8, !tbaa !163
  %46 = load ptr, ptr %38, align 8, !tbaa !93
  tail call void @N_VScale(double noundef %45, ptr noundef %46, ptr noundef %46) #13
  %47 = load ptr, ptr %38, align 8, !tbaa !93
  %48 = load ptr, ptr %40, align 8, !tbaa !165
  %49 = getelementptr inbounds nuw double, ptr %48, i64 %indvars.iv.i11
  %50 = load double, ptr %49, align 8, !tbaa !60
  tail call void @N_VAddConst(ptr noundef %47, double noundef %50, ptr noundef %47) #13
  %51 = load ptr, ptr %38, align 8, !tbaa !93
  %52 = tail call double @N_VMin(ptr noundef %51) #13
  %53 = fcmp ugt double %52, 0.000000e+00
  br i1 %53, label %54, label %IDASensEwtSetEE.exit

54:                                               ; preds = %41
  %55 = load ptr, ptr %38, align 8, !tbaa !93
  %56 = getelementptr inbounds nuw ptr, ptr %2, i64 %indvars.iv.i11
  %57 = load ptr, ptr %56, align 8, !tbaa !57
  tail call void @N_VInv(ptr noundef %55, ptr noundef %57) #13
  %indvars.iv.next.i12 = add nuw nsw i64 %indvars.iv.i11, 1
  %58 = load i32, ptr %35, align 4, !tbaa !139
  %59 = sext i32 %58 to i64
  %60 = icmp slt i64 %indvars.iv.next.i12, %59
  br i1 %60, label %41, label %IDASensEwtSetEE.exit, !llvm.loop !304

61:                                               ; preds = %3
  %62 = getelementptr inbounds nuw i8, ptr %0, i64 140
  %63 = load i32, ptr %62, align 4, !tbaa !139
  %64 = icmp sgt i32 %63, 0
  br i1 %64, label %.lr.ph.i13, label %IDASensEwtSetEE.exit

.lr.ph.i13:                                       ; preds = %61
  %65 = getelementptr inbounds nuw i8, ptr %0, i64 672
  %66 = getelementptr inbounds nuw i8, ptr %0, i64 224
  %67 = getelementptr inbounds nuw i8, ptr %0, i64 240
  br label %68

68:                                               ; preds = %80, %.lr.ph.i13
  %indvars.iv.i14 = phi i64 [ 0, %.lr.ph.i13 ], [ %indvars.iv.next.i15, %80 ]
  %69 = getelementptr inbounds nuw ptr, ptr %1, i64 %indvars.iv.i14
  %70 = load ptr, ptr %69, align 8, !tbaa !57
  %71 = load ptr, ptr %65, align 8, !tbaa !93
  tail call void @N_VAbs(ptr noundef %70, ptr noundef %71) #13
  %72 = load double, ptr %66, align 8, !tbaa !163
  %73 = load ptr, ptr %65, align 8, !tbaa !93
  %74 = load ptr, ptr %67, align 8, !tbaa !169
  %75 = getelementptr inbounds nuw ptr, ptr %74, i64 %indvars.iv.i14
  %76 = load ptr, ptr %75, align 8, !tbaa !57
  tail call void @N_VLinearSum(double noundef %72, ptr noundef %73, double noundef 1.000000e+00, ptr noundef %76, ptr noundef %73) #13
  %77 = load ptr, ptr %65, align 8, !tbaa !93
  %78 = tail call double @N_VMin(ptr noundef %77) #13
  %79 = fcmp ugt double %78, 0.000000e+00
  br i1 %79, label %80, label %IDASensEwtSetEE.exit

80:                                               ; preds = %68
  %81 = load ptr, ptr %65, align 8, !tbaa !93
  %82 = getelementptr inbounds nuw ptr, ptr %2, i64 %indvars.iv.i14
  %83 = load ptr, ptr %82, align 8, !tbaa !57
  tail call void @N_VInv(ptr noundef %81, ptr noundef %83) #13
  %indvars.iv.next.i15 = add nuw nsw i64 %indvars.iv.i14, 1
  %84 = load i32, ptr %62, align 4, !tbaa !139
  %85 = sext i32 %84 to i64
  %86 = icmp slt i64 %indvars.iv.next.i15, %85
  br i1 %86, label %68, label %IDASensEwtSetEE.exit, !llvm.loop !305

IDASensEwtSetEE.exit:                             ; preds = %80, %68, %54, %41, %26, %15, %61, %34, %6, %3
  %.0 = phi i32 [ 0, %3 ], [ 0, %6 ], [ 0, %34 ], [ 0, %61 ], [ -1, %15 ], [ 0, %26 ], [ -1, %41 ], [ 0, %54 ], [ -1, %68 ], [ 0, %80 ]
  ret i32 %.0
}